	.file	"memory.cpp"
	.text
#APP
	.globl _ZSt21ios_base_library_initv
#NO_APP
	.globl	global_var
	.data
	.align 4
	.type	global_var, @object
	.size	global_var, 4
global_var:
	.long	999
	.section	.rodata
.LC0:
	.base64	"5qCI5LiK5Y+Y6YePbG9jYWxB55qE5Zyw5Z2AOgA="
.LC1:
	.base64	"5qCI5LiK5Y+Y6YePbG9jYWxC55qE5Zyw5Z2AOgA="
	.text
	.globl	_Z9stackFuncv
	.type	_Z9stackFuncv, @function
_Z9stackFuncv:
.LFB1976:
	.cfi_startproc
	endbr64
	pushq	%rbp
	.cfi_def_cfa_offset 16
	.cfi_offset 6, -16
	movq	%rsp, %rbp
	.cfi_def_cfa_register 6
	subq	$16, %rsp
	movq	%fs:40, %rax
	movq	%rax, -8(%rbp)
	xorl	%eax, %eax
	movl	$42, -16(%rbp)
	movl	$100, -12(%rbp)
	leaq	.LC0(%rip), %rdx
	leaq	_ZSt4cout(%rip), %rax
	movq	%rdx, %rsi
	movq	%rax, %rdi
	call	_ZStlsISt11char_traitsIcEERSt13basic_ostreamIcT_ES5_PKc@PLT
	movq	%rax, %rdx
	leaq	-16(%rbp), %rax
	movq	%rax, %rsi
	movq	%rdx, %rdi
	call	_ZNSolsEPKv@PLT
	movq	_ZSt4endlIcSt11char_traitsIcEERSt13basic_ostreamIT_T0_ES6_@GOTPCREL(%rip), %rdx
	movq	%rdx, %rsi
	movq	%rax, %rdi
	call	_ZNSolsEPFRSoS_E@PLT
	leaq	.LC1(%rip), %rdx
	leaq	_ZSt4cout(%rip), %rax
	movq	%rdx, %rsi
	movq	%rax, %rdi
	call	_ZStlsISt11char_traitsIcEERSt13basic_ostreamIcT_ES5_PKc@PLT
	movq	%rax, %rdx
	leaq	-12(%rbp), %rax
	movq	%rax, %rsi
	movq	%rdx, %rdi
	call	_ZNSolsEPKv@PLT
	movq	_ZSt4endlIcSt11char_traitsIcEERSt13basic_ostreamIT_T0_ES6_@GOTPCREL(%rip), %rdx
	movq	%rdx, %rsi
	movq	%rax, %rdi
	call	_ZNSolsEPFRSoS_E@PLT
	nop
	movq	-8(%rbp), %rax
	subq	%fs:40, %rax
	je	.L2
	call	__stack_chk_fail@PLT
.L2:
	leave
	.cfi_def_cfa 7, 8
	ret
	.cfi_endproc
.LFE1976:
	.size	_Z9stackFuncv, .-_Z9stackFuncv
	.section	.rodata
	.align 8
.LC2:
	.base64	"5YWo5bGA5Y+Y6YePZ2xvYmFsX3ZhcueahOWcsOWdgDoA"
.LC3:
	.base64	"5qCI5LiK5oyH6ZKIcOeahOWcsOWdgDoA"
.LC4:
	.base64	"5aCG5LiK5Y+Y6YePNzc355qE5Zyw5Z2AOgA="
	.text
	.globl	main
	.type	main, @function
main:
.LFB1977:
	.cfi_startproc
	endbr64
	pushq	%rbp
	.cfi_def_cfa_offset 16
	.cfi_offset 6, -16
	movq	%rsp, %rbp
	.cfi_def_cfa_register 6
	subq	$16, %rsp
	movq	%fs:40, %rax
	movq	%rax, -8(%rbp)
	xorl	%eax, %eax
	movl	$4, %edi
	call	_Znwm@PLT
	movl	$777, (%rax)
	movl	$0, %edx
	movq	%rax, -16(%rbp)
	testb	%dl, %dl
	je	.L4
	movl	$4, %esi
	movq	%rax, %rdi
	call	_ZdlPvm@PLT
.L4:
	leaq	.LC2(%rip), %rdx
	leaq	_ZSt4cout(%rip), %rax
	movq	%rdx, %rsi
	movq	%rax, %rdi
	call	_ZStlsISt11char_traitsIcEERSt13basic_ostreamIcT_ES5_PKc@PLT
	movq	%rax, %rdx
	leaq	global_var(%rip), %rax
	movq	%rax, %rsi
	movq	%rdx, %rdi
	call	_ZNSolsEPKv@PLT
	movq	_ZSt4endlIcSt11char_traitsIcEERSt13basic_ostreamIT_T0_ES6_@GOTPCREL(%rip), %rdx
	movq	%rdx, %rsi
	movq	%rax, %rdi
	call	_ZNSolsEPFRSoS_E@PLT
	leaq	.LC3(%rip), %rdx
	leaq	_ZSt4cout(%rip), %rax
	movq	%rdx, %rsi
	movq	%rax, %rdi
	call	_ZStlsISt11char_traitsIcEERSt13basic_ostreamIcT_ES5_PKc@PLT
	movq	%rax, %rdx
	leaq	-16(%rbp), %rax
	movq	%rax, %rsi
	movq	%rdx, %rdi
	call	_ZNSolsEPKv@PLT
	movq	_ZSt4endlIcSt11char_traitsIcEERSt13basic_ostreamIT_T0_ES6_@GOTPCREL(%rip), %rdx
	movq	%rdx, %rsi
	movq	%rax, %rdi
	call	_ZNSolsEPFRSoS_E@PLT
	leaq	.LC4(%rip), %rdx
	leaq	_ZSt4cout(%rip), %rax
	movq	%rdx, %rsi
	movq	%rax, %rdi
	call	_ZStlsISt11char_traitsIcEERSt13basic_ostreamIcT_ES5_PKc@PLT
	movq	%rax, %rdx
	movq	-16(%rbp), %rax
	movq	%rax, %rsi
	movq	%rdx, %rdi
	call	_ZNSolsEPKv@PLT
	movq	_ZSt4endlIcSt11char_traitsIcEERSt13basic_ostreamIT_T0_ES6_@GOTPCREL(%rip), %rdx
	movq	%rdx, %rsi
	movq	%rax, %rdi
	call	_ZNSolsEPFRSoS_E@PLT
	call	_Z9stackFuncv
	movq	-16(%rbp), %rax
	testq	%rax, %rax
	je	.L5
	movl	$4, %esi
	movq	%rax, %rdi
	call	_ZdlPvm@PLT
.L5:
	movl	$0, %eax
	movq	-8(%rbp), %rdx
	subq	%fs:40, %rdx
	je	.L7
	call	__stack_chk_fail@PLT
.L7:
	leave
	.cfi_def_cfa 7, 8
	ret
	.cfi_endproc
.LFE1977:
	.size	main, .-main
	.ident	"GCC: (Ubuntu 15.2.0-16ubuntu1) 15.2.0"
	.section	.note.GNU-stack,"",@progbits
	.section	.note.gnu.property,"a"
	.align 8
	.long	1f - 0f
	.long	4f - 1f
	.long	5
0:
	.string	"GNU"
1:
	.align 8
	.long	0xc0000002
	.long	3f - 2f
2:
	.long	0x3
3:
	.align 8
4:
